; Function Attrs: nounwind uwtable
define void @Lpk_DecomposeClean(ptr noundef captures(none) %0, i32 noundef %1) local_unnamed_addr #0 {
  %3 = getelementptr i8, ptr %0, i64 4
  %.val89 = load i32, ptr %3, align 4, !tbaa !48
  %4 = icmp slt i32 %1, %.val89
  br i1 %4, label %.lr.ph, label %.critedge

.lr.ph:                                           ; preds = %2
  %5 = getelementptr i8, ptr %0, i64 8
  %6 = sext i32 %1 to i64
  br label %7

7:                                                ; preds = %.lr.ph, %7
  %indvars.iv = phi i64 [ %6, %.lr.ph ], [ %indvars.iv.next, %7 ]
  %.val = load ptr, ptr %5, align 8, !tbaa !20
  %8 = getelementptr inbounds ptr, ptr %.val, i64 %indvars.iv
  %9 = load ptr, ptr %8, align 8, !tbaa !22
  tail call void @Lpk_FunFree(ptr noundef %9) #6
  %indvars.iv.next = add nsw i64 %indvars.iv, 1
  %.val8 = load i32, ptr %3, align 4, !tbaa !48
  %10 = sext i32 %.val8 to i64
  %11 = icmp slt i64 %indvars.iv.next, %10
  br i1 %11, label %7, label %.critedge, !llvm.loop !72

.critedge:                                        ; preds = %7, %2
  store i32 %1, ptr %3, align 4, !tbaa !48
  ret void
}